(lp0
S'img4_0165.tif'
p1
aS'img3_0085.tif'
p2
aS'img3_0029.tif'
p3
aS'img3_0313.tif'
p4
aS'img8_0114.tif'
p5
aS'img7_0129.tif'
p6
aS'img8_0012.tif'
p7
aS'img6_0029.tif'
p8
aS'img4_0057.tif'
p9
aS'img2_0169.tif'
p10
aS'img3_0090.tif'
p11
aS'img4_0264.tif'
p12
aS'img8_0113.tif'
p13
aS'img3_0004.tif'
p14
aS'img4_0076.tif'
p15
aS'img3_0180.tif'
p16
aS'img1_0019.tif'
p17
aS'img6_0081.tif'
p18
aS'img7_0116.tif'
p19
aS'img8_0021.tif'
p20
aS'img4_0174.tif'
p21
aS'img1_0162.tif'
p22
aS'img2_0219.tif'
p23
aS'img1_0048.tif'
p24
aS'img4_0024.tif'
p25
aS'img4_0152.tif'
p26
aS'img5_0084.tif'
p27
aS'img2_0079.tif'
p28
aS'img6_0052.tif'
p29
aS'img2_0193.tif'
p30
aS'img3_0104.tif'
p31
aS'img4_0019.tif'
p32
aS'img4_0227.tif'
p33
aS'img1_0089.tif'
p34
aS'img3_0129.tif'
p35
aS'img3_0296.tif'
p36
aS'img1_0012.tif'
p37
aS'img3_0274.tif'
p38
aS'img5_0086.tif'
p39
aS'img4_0121.tif'
p40
aS'img8_0104.tif'
p41
aS'img8_0046.tif'
p42
aS'img6_0025.tif'
p43
aS'img4_0134.tif'
p44
aS'img4_0244.tif'
p45
aS'img3_0336.tif'
p46
aS'img4_0241.tif'
p47
aS'img2_0077.tif'
p48
aS'img3_0124.tif'
p49
aS'img7_0016.tif'
p50
aS'img1_0003.tif'
p51
aS'img3_0204.tif'
p52
aS'img3_0407.tif'
p53
aS'img3_0234.tif'
p54
aS'img5_0054.tif'
p55
aS'img1_0106.tif'
p56
aS'img3_0318.tif'
p57
aS'img1_0078.tif'
p58
aS'img4_0169.tif'
p59
aS'img1_0208.tif'
p60
aS'img5_0008.tif'
p61
aS'img1_0022.tif'
p62
aS'img6_0108.tif'
p63
aS'img4_0006.tif'
p64
aS'img1_0057.tif'
p65
aS'img7_0003.tif'
p66
aS'img3_0005.tif'
p67
aS'img3_0078.tif'
p68
aS'img3_0044.tif'
p69
aS'img3_0105.tif'
p70
aS'img4_0034.tif'
p71
aS'img5_0114.tif'
p72
aS'img3_0148.tif'
p73
aS'img4_0259.tif'
p74
aS'img3_0077.tif'
p75
aS'img7_0114.tif'
p76
aS'img2_0188.tif'
p77
aS'img7_0071.tif'
p78
aS'img7_0028.tif'
p79
aS'img4_0048.tif'
p80
aS'img8_0068.tif'
p81
aS'img5_0024.tif'
p82
aS'img1_0139.tif'
p83
aS'img3_0229.tif'
p84
aS'img1_0035.tif'
p85
aS'img3_0184.tif'
p86
aS'img7_0057.tif'
p87
aS'img4_0253.tif'
p88
aS'img8_0096.tif'
p89
aS'img7_0174.tif'
p90
aS'img5_0127.tif'
p91
aS'img1_0107.tif'
p92
aS'img8_0058.tif'
p93
aS'img6_0068.tif'
p94
aS'img3_0329.tif'
p95
aS'img3_0226.tif'
p96
aS'img5_0072.tif'
p97
aS'img3_0233.tif'
p98
aS'img6_0020.tif'
p99
aS'img4_0204.tif'
p100
aS'img1_0087.tif'
p101
aS'img3_0034.tif'
p102
aS'img1_0077.tif'
p103
aS'img1_0071.tif'
p104
aS'img4_0101.tif'
p105
aS'img3_0259.tif'
p106
aS'img3_0110.tif'
p107
aS'img2_0207.tif'
p108
aS'img4_0084.tif'
p109
aS'img1_0014.tif'
p110
aS'img2_0067.tif'
p111
aS'img3_0020.tif'
p112
aS'img4_0147.tif'
p113
aS'img3_0256.tif'
p114
aS'img1_0171.tif'
p115
aS'img1_0045.tif'
p116
aS'img1_0261.tif'
p117
aS'img5_0040.tif'
p118
aS'img6_0113.tif'
p119
aS'img3_0018.tif'
p120
aS'img1_0024.tif'
p121
aS'img8_0135.tif'
p122
aS'img4_0082.tif'
p123
aS'img3_0353.tif'
p124
aS'img2_0059.tif'
p125
aS'img3_0175.tif'
p126
aS'img4_0197.tif'
p127
aS'img8_0134.tif'
p128
aS'img1_0061.tif'
p129
aS'img2_0153.tif'
p130
aS'img5_0144.tif'
p131
aS'img3_0121.tif'
p132
aS'img8_0108.tif'
p133
aS'img8_0008.tif'
p134
aS'img4_0148.tif'
p135
aS'img6_0057.tif'
p136
aS'img1_0137.tif'
p137
aS'img2_0017.tif'
p138
aS'img1_0108.tif'
p139
aS'img3_0395.tif'
p140
aS'img1_0153.tif'
p141
aS'img3_0079.tif'
p142
aS'img3_0052.tif'
p143
aS'img3_0043.tif'
p144
aS'img4_0125.tif'
p145
aS'img8_0128.tif'
p146
aS'img6_0043.tif'
p147
aS'img6_0070.tif'
p148
aS'img2_0025.tif'
p149
aS'img1_0060.tif'
p150
aS'img3_0217.tif'
p151
aS'img3_0271.tif'
p152
aS'img3_0357.tif'
p153
aS'img5_0023.tif'
p154
aS'img2_0052.tif'
p155
aS'img6_0107.tif'
p156
aS'img8_0034.tif'
p157
aS'img4_0027.tif'
p158
aS'img4_0179.tif'
p159
aS'img5_0129.tif'
p160
aS'img6_0014.tif'
p161
aS'img7_0013.tif'
p162
aS'img1_0008.tif'
p163
aS'img2_0103.tif'
p164
aS'img3_0416.tif'
p165
aS'img7_0082.tif'
p166
aS'img1_0230.tif'
p167
aS'img3_0327.tif'
p168
aS'img3_0094.tif'
p169
aS'img3_0215.tif'
p170
aS'img1_0219.tif'
p171
aS'img6_0073.tif'
p172
aS'img4_0111.tif'
p173
aS'img6_0099.tif'
p174
aS'img2_0029.tif'
p175
aS'img3_0323.tif'
p176
aS'img3_0120.tif'
p177
aS'img2_0194.tif'
p178
aS'img3_0316.tif'
p179
aS'img3_0169.tif'
p180
aS'img2_0069.tif'
p181
aS'img1_0142.tif'
p182
aS'img4_0240.tif'
p183
aS'img5_0076.tif'
p184
aS'img7_0151.tif'
p185
aS'img4_0042.tif'
p186
aS'img4_0191.tif'
p187
aS'img4_0157.tif'
p188
aS'img8_0077.tif'
p189
aS'img5_0138.tif'
p190
aS'img3_0156.tif'
p191
aS'img3_0377.tif'
p192
aS'img3_0389.tif'
p193
aS'img6_0063.tif'
p194
aS'img7_0072.tif'
p195
aS'img5_0123.tif'
p196
aS'img2_0155.tif'
p197
aS'img1_0214.tif'
p198
aS'img3_0264.tif'
p199
aS'img8_0102.tif'
p200
aS'img1_0084.tif'
p201
aS'img4_0012.tif'
p202
aS'img8_0018.tif'
p203
aS'img3_0300.tif'
p204
aS'img3_0122.tif'
p205
aS'img2_0110.tif'
p206
aS'img4_0265.tif'
p207
aS'img4_0170.tif'
p208
aS'img1_0017.tif'
p209
aS'img6_0047.tif'
p210
aS'img3_0159.tif'
p211
aS'img1_0002.tif'
p212
aS'img1_0173.tif'
p213
aS'img5_0085.tif'
p214
aS'img3_0133.tif'
p215
aS'img3_0225.tif'
p216
aS'img2_0022.tif'
p217
aS'img1_0119.tif'
p218
aS'img7_0066.tif'
p219
aS'img3_0385.tif'
p220
aS'img4_0041.tif'
p221
aS'img6_0027.tif'
p222
aS'img4_0028.tif'
p223
aS'img4_0069.tif'
p224
aS'img4_0064.tif'
p225
aS'img7_0032.tif'
p226
aS'img2_0131.tif'
p227
aS'img1_0269.tif'
p228
aS'img4_0156.tif'
p229
aS'img1_0228.tif'
p230
aS'img8_0064.tif'
p231
aS'img4_0223.tif'
p232
aS'img6_0097.tif'
p233
aS'img3_0196.tif'
p234
aS'img5_0082.tif'
p235
aS'img2_0030.tif'
p236
aS'img5_0122.tif'
p237
aS'img1_0138.tif'
p238
aS'img2_0187.tif'
p239
aS'img5_0108.tif'
p240
aS'img8_0137.tif'
p241
aS'img8_0125.tif'
p242
aS'img3_0045.tif'
p243
aS'img1_0196.tif'
p244
aS'img3_0297.tif'
p245
aS'img8_0004.tif'
p246
aS'img5_0153.tif'
p247
aS'img3_0101.tif'
p248
aS'img4_0252.tif'
p249
aS'img5_0063.tif'
p250
aS'img7_0140.tif'
p251
aS'img3_0366.tif'
p252
aS'img2_0185.tif'
p253
aS'img1_0226.tif'
p254
aS'img8_0067.tif'
p255
aS'img5_0119.tif'
p256
aS'img7_0092.tif'
p257
aS'img1_0178.tif'
p258
aS'img4_0261.tif'
p259
aS'img8_0145.tif'
p260
aS'img7_0077.tif'
p261
aS'img7_0128.tif'
p262
aS'img3_0011.tif'
p263
aS'img2_0204.tif'
p264
aS'img3_0100.tif'
p265
aS'img1_0233.tif'
p266
aS'img7_0042.tif'
p267
aS'img2_0161.tif'
p268
aS'img3_0255.tif'
p269
aS'img5_0073.tif'
p270
aS'img1_0277.tif'
p271
aS'img4_0189.tif'
p272
aS'img4_0099.tif'
p273
aS'img8_0063.tif'
p274
aS'img3_0237.tif'
p275
aS'img7_0037.tif'
p276
aS'img3_0194.tif'
p277
aS'img5_0009.tif'
p278
aS'img2_0023.tif'
p279
aS'img7_0041.tif'
p280
aS'img7_0180.tif'
p281
aS'img6_0045.tif'
p282
aS'img1_0030.tif'
p283
aS'img8_0061.tif'
p284
aS'img4_0167.tif'
p285
aS'img3_0310.tif'
p286
aS'img2_0086.tif'
p287
aS'img2_0099.tif'
p288
aS'img3_0421.tif'
p289
aS'img1_0185.tif'
p290
aS'img4_0116.tif'
p291
aS'img5_0140.tif'
p292
aS'img3_0382.tif'
p293
aS'img5_0146.tif'
p294
aS'img3_0335.tif'
p295
aS'img8_0023.tif'
p296
aS'img6_0085.tif'
p297
aS'img8_0028.tif'
p298
aS'img4_0073.tif'
p299
aS'img3_0289.tif'
p300
aS'img7_0110.tif'
p301
aS'img6_0110.tif'
p302
aS'img2_0203.tif'
p303
aS'img3_0410.tif'
p304
aS'img1_0046.tif'
p305
aS'img7_0147.tif'
p306
aS'img2_0178.tif'
p307
aS'img3_0155.tif'
p308
aS'img6_0100.tif'
p309
aS'img8_0122.tif'
p310
aS'img7_0051.tif'
p311
aS'img4_0105.tif'
p312
aS'img3_0209.tif'
p313
aS'img7_0093.tif'
p314
aS'img5_0112.tif'
p315
aS'img2_0092.tif'
p316
aS'img3_0312.tif'
p317
aS'img4_0232.tif'
p318
aS'img4_0239.tif'
p319
aS'img4_0052.tif'
p320
aS'img8_0127.tif'
p321
aS'img3_0238.tif'
p322
aS'img1_0165.tif'
p323
aS'img4_0089.tif'
p324
aS'img8_0109.tif'
p325
aS'img2_0031.tif'
p326
aS'img4_0202.tif'
p327
aS'img1_0033.tif'
p328
aS'img1_0036.tif'
p329
aS'img1_0095.tif'
p330
aS'img7_0083.tif'
p331
aS'img5_0020.tif'
p332
aS'img3_0267.tif'
p333
aS'img3_0374.tif'
p334
aS'img1_0015.tif'
p335
aS'img3_0375.tif'
p336
aS'img2_0004.tif'
p337
aS'img6_0037.tif'
p338
aS'img4_0236.tif'
p339
aS'img4_0185.tif'
p340
aS'img1_0090.tif'
p341
aS'img1_0181.tif'
p342
aS'img7_0169.tif'
p343
aS'img7_0086.tif'
p344
aS'img5_0039.tif'
p345
aS'img2_0078.tif'
p346
aS'img1_0066.tif'
p347
aS'img2_0123.tif'
p348
aS'img3_0250.tif'
p349
aS'img1_0217.tif'
p350
aS'img3_0205.tif'
p351
aS'img3_0182.tif'
p352
aS'img3_0283.tif'
p353
aS'img5_0011.tif'
p354
aS'img7_0148.tif'
p355
aS'img8_0085.tif'
p356
aS'img8_0030.tif'
p357
aS'img4_0117.tif'
p358
aS'img4_0122.tif'
p359
aS'img1_0182.tif'
p360
aS'img2_0014.tif'
p361
aS'img3_0061.tif'
p362
aS'img2_0072.tif'
p363
aS'img4_0014.tif'
p364
aS'img3_0269.tif'
p365
aS'img7_0123.tif'
p366
aS'img6_0044.tif'
p367
aS'img3_0012.tif'
p368
aS'img2_0120.tif'
p369
aS'img3_0359.tif'
p370
aS'img5_0101.tif'
p371
aS'img1_0239.tif'
p372
aS'img3_0363.tif'
p373
aS'img4_0160.tif'
p374
aS'img1_0118.tif'
p375
aS'img1_0177.tif'
p376
aS'img7_0080.tif'
p377
aS'img4_0254.tif'
p378
aS'img4_0083.tif'
p379
aS'img1_0191.tif'
p380
aS'img3_0304.tif'
p381
aS'img5_0100.tif'
p382
aS'img4_0146.tif'
p383
aS'img2_0027.tif'
p384
aS'img4_0153.tif'
p385
aS'img1_0147.tif'
p386
aS'img5_0094.tif'
p387
aS'img2_0118.tif'
p388
aS'img7_0177.tif'
p389
aS'img3_0162.tif'
p390
aS'img3_0373.tif'
p391
aS'img3_0041.tif'
p392
aS'img3_0425.tif'
p393
aS'img3_0291.tif'
p394
aS'img3_0056.tif'
p395
aS'img8_0141.tif'
p396
aS'img3_0173.tif'
p397
aS'img1_0249.tif'
p398
aS'img3_0220.tif'
p399
aS'img3_0260.tif'
p400
aS'img7_0111.tif'
p401
aS'img2_0096.tif'
p402
aS'img7_0164.tif'
p403
aS'img1_0007.tif'
p404
aS'img8_0138.tif'
p405
aS'img6_0114.tif'
p406
aS'img1_0013.tif'
p407
aS'img4_0078.tif'
p408
aS'img7_0076.tif'
p409
aS'img4_0010.tif'
p410
aS'img6_0003.tif'
p411
aS'img5_0003.tif'
p412
aS'img3_0210.tif'
p413
aS'img2_0068.tif'
p414
aS'img4_0020.tif'
p415
aS'img2_0107.tif'
p416
aS'img1_0198.tif'
p417
aS'img6_0094.tif'
p418
aS'img3_0371.tif'
p419
aS'img3_0166.tif'
p420
aS'img3_0096.tif'
p421
aS'img6_0012.tif'
p422
aS'img6_0036.tif'
p423
aS'img2_0151.tif'
p424
aS'img3_0057.tif'
p425
aS'img1_0105.tif'
p426
aS'img8_0052.tif'
p427
aS'img3_0242.tif'
p428
aS'img3_0397.tif'
p429
aS'img4_0136.tif'
p430
aS'img4_0070.tif'
p431
aS'img3_0030.tif'
p432
aS'img3_0290.tif'
p433
aS'img3_0203.tif'
p434
aS'img3_0054.tif'
p435
aS'img5_0035.tif'
p436
aS'img3_0278.tif'
p437
aS'img1_0263.tif'
p438
aS'img8_0048.tif'
p439
aS'img2_0043.tif'
p440
aS'img4_0214.tif'
p441
aS'img4_0005.tif'
p442
aS'img7_0005.tif'
p443
aS'img1_0042.tif'
p444
aS'img3_0131.tif'
p445
aS'img5_0067.tif'
p446
aS'img4_0092.tif'
p447
aS'img6_0060.tif'
p448
aS'img3_0223.tif'
p449
aS'img1_0127.tif'
p450
aS'img2_0033.tif'
p451
aS'img3_0378.tif'
p452
aS'img4_0044.tif'
p453
aS'img3_0218.tif'
p454
aS'img4_0035.tif'
p455
aS'img1_0063.tif'
p456
aS'img6_0072.tif'
p457
aS'img1_0194.tif'
p458
aS'img8_0024.tif'
p459
aS'img2_0020.tif'
p460
aS'img3_0139.tif'
p461
aS'img3_0251.tif'
p462
aS'img4_0081.tif'
p463
aS'img7_0044.tif'
p464
aS'img8_0053.tif'
p465
aS'img8_0121.tif'
p466
aS'img4_0180.tif'
p467
aS'img8_0041.tif'
p468
aS'img6_0105.tif'
p469
aS'img4_0216.tif'
p470
aS'img2_0221.tif'
p471
aS'img3_0137.tif'
p472
aS'img2_0137.tif'
p473
aS'img4_0217.tif'
p474
aS'img1_0052.tif'
p475
aS'img5_0139.tif'
p476
aS'img6_0024.tif'
p477
aS'img4_0218.tif'
p478
aS'img7_0099.tif'
p479
aS'img7_0100.tif'
p480
aS'img2_0062.tif'
p481
aS'img8_0074.tif'
p482
aS'img1_0218.tif'
p483
aS'img7_0017.tif'
p484
aS'img1_0211.tif'
p485
aS'img3_0298.tif'
p486
aS'img8_0140.tif'
p487
aS'img3_0179.tif'
p488
aS'img5_0049.tif'
p489
aS'img3_0033.tif'
p490
aS'img5_0033.tif'
p491
aS'img2_0173.tif'
p492
aS'img3_0060.tif'
p493
aS'img3_0089.tif'
p494
aS'img6_0019.tif'
p495
aS'img4_0066.tif'
p496
aS'img3_0130.tif'
p497
aS'img3_0387.tif'
p498
aS'img1_0240.tif'
p499
aS'img3_0319.tif'
p500
aS'img1_0195.tif'
p501
aS'img2_0090.tif'
p502
aS'img6_0031.tif'
p503
aS'img4_0071.tif'
p504
aS'img2_0211.tif'
p505
aS'img3_0042.tif'
p506
aS'img2_0101.tif'
p507
aS'img3_0046.tif'
p508
aS'img7_0170.tif'
p509
aS'img2_0024.tif'
p510
aS'img8_0017.tif'
p511
aS'img8_0100.tif'
p512
aS'img1_0242.tif'
p513
aS'img2_0100.tif'
p514
aS'img8_0038.tif'
p515
aS'img3_0163.tif'
p516
aS'img5_0057.tif'
p517
aS'img1_0086.tif'
p518
aS'img1_0004.tif'
p519
aS'img1_0163.tif'
p520
aS'img5_0013.tif'
p521
aS'img6_0101.tif'
p522
aS'img3_0372.tif'
p523
aS'img4_0001.tif'
p524
aS'img7_0007.tif'
p525
aS'img2_0119.tif'
p526
aS'img7_0108.tif'
p527
aS'img3_0128.tif'
p528
aS'img2_0225.tif'
p529
aS'img1_0222.tif'
p530
aS'img3_0106.tif'
p531
aS'img1_0183.tif'
p532
aS'img3_0354.tif'
p533
aS'img4_0062.tif'
p534
aS'img3_0305.tif'
p535
aS'img3_0400.tif'
p536
aS'img8_0081.tif'
p537
aS'img1_0081.tif'
p538
aS'img7_0150.tif'
p539
aS'img4_0166.tif'
p540
aS'img7_0187.tif'
p541
aS'img2_0159.tif'
p542
aS'img1_0262.tif'
p543
aS'img1_0126.tif'
p544
aS'img4_0088.tif'
p545
aS'img5_0069.tif'
p546
aS'img3_0320.tif'
p547
aS'img5_0098.tif'
p548
aS'img2_0136.tif'
p549
aS'img7_0142.tif'
p550
aS'img3_0010.tif'
p551
aS'img3_0022.tif'
p552
aS'img1_0129.tif'
p553
aS'img3_0286.tif'
p554
aS'img1_0213.tif'
p555
aS'img8_0123.tif'
p556
aS'img4_0025.tif'
p557
aS'img3_0084.tif'
p558
aS'img4_0243.tif'
p559
aS'img3_0270.tif'
p560
aS'img2_0146.tif'
p561
aS'img8_0133.tif'
p562
aS'img1_0068.tif'
p563
aS'img2_0163.tif'
p564
aS'img7_0056.tif'
p565
aS'img4_0113.tif'
p566
aS'img3_0154.tif'
p567
aS'img7_0112.tif'
p568
aS'img3_0365.tif'
p569
aS'img4_0032.tif'
p570
aS'img3_0317.tif'
p571
aS'img1_0067.tif'
p572
aS'img1_0210.tif'
p573
aS'img1_0058.tif'
p574
aS'img5_0145.tif'
p575
aS'img7_0049.tif'
p576
aS'img1_0270.tif'
p577
aS'img7_0063.tif'
p578
aS'img5_0149.tif'
p579
aS'img8_0112.tif'
p580
aS'img1_0038.tif'
p581
aS'img5_0087.tif'
p582
aS'img3_0073.tif'
p583
aS'img7_0019.tif'
p584
aS'img3_0190.tif'
p585
aS'img8_0049.tif'
p586
aS'img2_0172.tif'
p587
aS'img2_0127.tif'
p588
aS'img4_0175.tif'
p589
aS'img8_0107.tif'
p590
aS'img1_0062.tif'
p591
aS'img2_0138.tif'
p592
aS'img6_0092.tif'
p593
aS'img3_0172.tif'
p594
aS'img8_0036.tif'
p595
aS'img6_0002.tif'
p596
aS'img1_0160.tif'
p597
aS'img1_0203.tif'
p598
aS'img4_0184.tif'
p599
aS'img8_0014.tif'
p600
aS'img7_0107.tif'
p601
aS'img2_0156.tif'
p602
aS'img5_0120.tif'
p603
aS'img3_0367.tif'
p604
aS'img5_0099.tif'
p605
aS'img2_0170.tif'
p606
aS'img7_0157.tif'
p607
aS'img5_0078.tif'
p608
aS'img2_0019.tif'
p609
aS'img5_0018.tif'
p610
aS'img1_0241.tif'
p611
aS'img3_0355.tif'
p612
aS'img1_0275.tif'
p613
aS'img2_0130.tif'
p614
aS'img4_0198.tif'
p615
aS'img4_0077.tif'
p616
aS'img1_0238.tif'
p617
aS'img8_0095.tif'
p618
aS'img1_0247.tif'
p619
aS'img8_0071.tif'
p620
aS'img1_0113.tif'
p621
aS'img7_0040.tif'
p622
aS'img2_0134.tif'
p623
aS'img1_0187.tif'
p624
aS'img1_0026.tif'
p625
aS'img7_0120.tif'
p626
aS'img8_0042.tif'
p627
aS'img7_0064.tif'
p628
aS'img3_0257.tif'
p629
aS'img5_0027.tif'
p630
aS'img7_0125.tif'
p631
aS'img3_0049.tif'
p632
aS'img8_0043.tif'
p633
aS'img2_0210.tif'
p634
aS'img7_0070.tif'
p635
aS'img8_0115.tif'
p636
aS'img3_0002.tif'
p637
aS'img4_0209.tif'
p638
aS'img7_0145.tif'
p639
aS'img4_0141.tif'
p640
aS'img5_0015.tif'
p641
aS'img1_0130.tif'
p642
aS'img7_0033.tif'
p643
aS'img8_0111.tif'
p644
aS'img8_0142.tif'
p645
aS'img8_0001.tif'
p646
aS'img8_0120.tif'
p647
aS'img3_0082.tif'
p648
aS'img2_0053.tif'
p649
aS'img2_0057.tif'
p650
aS'img1_0117.tif'
p651
aS'img8_0010.tif'
p652
aS'img3_0349.tif'
p653
aS'img1_0276.tif'
p654
aS'img3_0055.tif'
p655
aS'img4_0043.tif'
p656
aS'img3_0427.tif'
p657
aS'img7_0096.tif'
p658
aS'img1_0236.tif'
p659
aS'img7_0181.tif'
p660
aS'img5_0117.tif'
p661
aS'img4_0221.tif'
p662
aS'img2_0212.tif'
p663
aS'img2_0012.tif'
p664
aS'img7_0047.tif'
p665
aS'img3_0188.tif'
p666
aS'img3_0201.tif'
p667
aS'img7_0166.tif'
p668
aS'img2_0094.tif'
p669
aS'img8_0007.tif'
p670
aS'img4_0107.tif'
p671
aS'img8_0099.tif'
p672
aS'img5_0010.tif'
p673
aS'img3_0058.tif'
p674
aS'img4_0053.tif'
p675
aS'img1_0248.tif'
p676
aS'img3_0093.tif'
p677
aS'img4_0233.tif'
p678
aS'img3_0151.tif'
p679
aS'img3_0080.tif'
p680
aS'img1_0206.tif'
p681
aS'img7_0073.tif'
p682
aS'img2_0162.tif'
p683
aS'img8_0037.tif'
p684
aS'img3_0178.tif'
p685
aS'img7_0008.tif'
p686
aS'img3_0219.tif'
p687
aS'img2_0222.tif'
p688
aS'img3_0200.tif'
p689
aS'img6_0038.tif'
p690
aS'img1_0281.tif'
p691
aS'img2_0016.tif'
p692
aS'img6_0006.tif'
p693
aS'img1_0189.tif'
p694
aS'img1_0043.tif'
p695
aS'img3_0036.tif'
p696
aS'img4_0144.tif'
p697
aS'img7_0078.tif'
p698
aS'img3_0202.tif'
p699
aS'img3_0143.tif'
p700
aS'img8_0040.tif'
p701
aS'img7_0156.tif'
p702
aS'img3_0398.tif'
p703
aS'img8_0035.tif'
p704
aS'img7_0020.tif'
p705
aS'img4_0188.tif'
p706
aS'img6_0069.tif'
p707
aS'img4_0230.tif'
p708
aS'img3_0330.tif'
p709
aS'img2_0214.tif'
p710
aS'img1_0049.tif'
p711
aS'img3_0272.tif'
p712
aS'img2_0080.tif'
p713
aS'img1_0114.tif'
p714
aS'img6_0004.tif'
p715
aS'img1_0103.tif'
p716
aS'img3_0285.tif'
p717
aS'img7_0036.tif'
p718
aS'img4_0112.tif'
p719
aS'img2_0182.tif'
p720
aS'img4_0158.tif'
p721
aS'img7_0029.tif'
p722
aS'img2_0013.tif'
p723
aS'img1_0023.tif'
p724
aS'img1_0172.tif'
p725
aS'img4_0163.tif'
p726
aS'img2_0087.tif'
p727
aS'img5_0051.tif'
p728
aS'img4_0126.tif'
p729
aS'img2_0039.tif'
p730
aS'img4_0247.tif'
p731
aS'img1_0076.tif'
p732
aS'img3_0351.tif'
p733
aS'img2_0158.tif'
p734
aS'img2_0192.tif'
p735
aS'img7_0091.tif'
p736
aS'img1_0099.tif'
p737
aS'img1_0124.tif'
p738
aS'img3_0415.tif'
p739
aS'img6_0005.tif'
p740
aS'img7_0144.tif'
p741
aS'img3_0326.tif'
p742
aS'img3_0386.tif'
p743
aS'img1_0092.tif'
p744
aS'img2_0111.tif'
p745
aS'img1_0027.tif'
p746
aS'img7_0012.tif'
p747
aS'img1_0246.tif'
p748
aS'img1_0253.tif'
p749
aS'img5_0089.tif'
p750
aS'img1_0221.tif'
p751
aS'img3_0170.tif'
p752
aS'img7_0109.tif'
p753
aS'img2_0095.tif'
p754
aS'img2_0045.tif'
p755
aS'img2_0049.tif'
p756
aS'img6_0007.tif'
p757
aS'img5_0115.tif'
p758
aS'img6_0087.tif'
p759
aS'img3_0376.tif'
p760
aS'img4_0257.tif'
p761
aS'img4_0200.tif'
p762
aS'img3_0048.tif'
p763
aS'img6_0023.tif'
p764
aS'img3_0191.tif'
p765
aS'img7_0085.tif'
p766
aS'img1_0122.tif'
p767
aS'img2_0007.tif'
p768
aS'img5_0060.tif'
p769
aS'img8_0110.tif'
p770
aS'img7_0146.tif'
p771
aS'img2_0042.tif'
p772
aS'img1_0041.tif'
p773
aS'img5_0046.tif'
p774
aS'img2_0206.tif'
p775
aS'img6_0015.tif'
p776
aS'img3_0343.tif'
p777
aS'img2_0071.tif'
p778
aS'img1_0184.tif'
p779
aS'img3_0161.tif'
p780
aS'img3_0342.tif'
p781
aS'img3_0125.tif'
p782
aS'img3_0221.tif'
p783
aS'img7_0179.tif'
p784
aS'img5_0016.tif'
p785
aS'img6_0075.tif'
p786
aS'img3_0135.tif'
p787
aS'img4_0178.tif'
p788
aS'img1_0083.tif'
p789
aS'img7_0117.tif'
p790
aS'img3_0337.tif'
p791
aS'img5_0064.tif'
p792
aS'img6_0053.tif'
p793
aS'img7_0137.tif'
p794
aS'img4_0256.tif'
p795
aS'img5_0037.tif'
p796
aS'img2_0154.tif'
p797
aS'img1_0264.tif'
p798
aS'img6_0030.tif'
p799
aS'img1_0088.tif'
p800
aS'img8_0106.tif'
p801
aS'img7_0102.tif'
p802
aS'img7_0126.tif'
p803
aS'img2_0215.tif'
p804
aS'img2_0208.tif'
p805
aS'img3_0369.tif'
p806
aS'img1_0111.tif'
p807
aS'img7_0024.tif'
p808
aS'img3_0303.tif'
p809
aS'img5_0032.tif'
p810
aS'img3_0358.tif'
p811
aS'img2_0129.tif'
p812
aS'img8_0029.tif'
p813
aS'img6_0048.tif'
p814
aS'img4_0108.tif'
p815
aS'img6_0054.tif'
p816
aS'img2_0073.tif'
p817
aS'img3_0419.tif'
p818
aS'img6_0080.tif'
p819
aS'img2_0032.tif'
p820
aS'img3_0189.tif'
p821
aS'img6_0083.tif'
p822
aS'img1_0254.tif'
p823
aS'img1_0273.tif'
p824
aS'img3_0406.tif'
p825
aS'img4_0091.tif'
p826
aS'img7_0045.tif'
p827
aS'img5_0062.tif'
p828
aS'img2_0054.tif'
p829
aS'img2_0116.tif'
p830
aS'img3_0107.tif'
p831
aS'img4_0119.tif'
p832
aS'img1_0231.tif'
p833
aS'img2_0186.tif'
p834
aS'img4_0085.tif'
p835
aS'img4_0173.tif'
p836
aS'img2_0216.tif'
p837
aS'img2_0113.tif'
p838
aS'img3_0195.tif'
p839
aS'img5_0058.tif'
p840
aS'img5_0029.tif'
p841
aS'img4_0051.tif'
p842
aS'img4_0159.tif'
p843
aS'img7_0094.tif'
p844
aS'img3_0287.tif'
p845
aS'img7_0065.tif'
p846
aS'img5_0030.tif'
p847
aS'img8_0091.tif'
p848
aS'img5_0045.tif'
p849
aS'img3_0206.tif'
p850
aS'img4_0215.tif'
p851
aS'img1_0104.tif'
p852
aS'img7_0121.tif'
p853
aS'img5_0097.tif'
p854
aS'img4_0250.tif'
p855
aS'img3_0038.tif'
p856
aS'img7_0034.tif'
p857
aS'img8_0005.tif'
p858
aS'img2_0084.tif'
p859
aS'img3_0307.tif'
p860
aS'img4_0093.tif'
p861
aS'img1_0037.tif'
p862
aS'img3_0109.tif'
p863
aS'img8_0105.tif'
p864
aS'img6_0042.tif'
p865
aS'img6_0093.tif'
p866
aS'img3_0021.tif'
p867
aS'img4_0135.tif'
p868
aS'img6_0091.tif'
p869
aS'img4_0123.tif'
p870
aS'img3_0095.tif'
p871
aS'img4_0203.tif'
p872
aS'img7_0149.tif'
p873
aS'img3_0309.tif'
p874
aS'img8_0098.tif'
p875
aS'img2_0021.tif'
p876
aS'img4_0007.tif'
p877
aS'img6_0106.tif'
p878
aS'img2_0165.tif'
p879
aS'img3_0396.tif'
p880
aS'img4_0194.tif'
p881
aS'img3_0027.tif'
p882
aS'img7_0167.tif'
p883
aS'img7_0143.tif'
p884
aS'img8_0072.tif'
p885
aS'img4_0150.tif'
p886
aS'img7_0022.tif'
p887
aS'img3_0187.tif'
p888
aS'img7_0055.tif'
p889
aS'img2_0195.tif'
p890
aS'img1_0140.tif'
p891
aS'img5_0136.tif'
p892
aS'img8_0026.tif'
p893
aS'img4_0086.tif'
p894
aS'img6_0034.tif'
p895
aS'img2_0139.tif'
p896
aS'img1_0091.tif'
p897
aS'img3_0199.tif'
p898
aS'img2_0104.tif'
p899
aS'img5_0074.tif'
p900
aS'img3_0424.tif'
p901
aS'img1_0209.tif'
p902
aS'img3_0239.tif'
p903
aS'img6_0082.tif'
p904
aS'img3_0024.tif'
p905
aS'img2_0117.tif'
p906
aS'img3_0051.tif'
p907
aS'img2_0038.tif'
p908
aS'img3_0213.tif'
p909
aS'img4_0013.tif'
p910
aS'img6_0051.tif'
p911
aS'img7_0067.tif'
p912
aS'img6_0033.tif'
p913
aS'img7_0133.tif'
p914
aS'img1_0097.tif'
p915
aS'img7_0004.tif'
p916
aS'img2_0089.tif'
p917
aS'img1_0149.tif'
p918
aS'img3_0236.tif'
p919
aS'img3_0063.tif'
p920
aS'img8_0084.tif'
p921
aS'img2_0046.tif'
p922
aS'img7_0006.tif'
p923
aS'img8_0139.tif'
p924
aS'img8_0130.tif'
p925
aS'img2_0144.tif'
p926
aS'img1_0094.tif'
p927
aS'img1_0188.tif'
p928
aS'img1_0021.tif'
p929
aS'img2_0008.tif'
p930
aS'img2_0002.tif'
p931
aS'img4_0161.tif'
p932
aS'img3_0262.tif'
p933
aS'img7_0046.tif'
p934
aS'img6_0074.tif'
p935
aS'img7_0038.tif'
p936
aS'img7_0154.tif'
p937
aS'img4_0219.tif'
p938
aS'img1_0020.tif'
p939
aS'img3_0388.tif'
p940
aS'img5_0022.tif'
p941
aS'img6_0088.tif'
p942
aS'img5_0126.tif'
p943
aS'img3_0224.tif'
p944
aS'img6_0062.tif'
p945
aS'img3_0097.tif'
p946
aS'img2_0083.tif'
p947
aS'img3_0301.tif'
p948
aS'img7_0069.tif'
p949
aS'img4_0068.tif'
p950
aS'img2_0028.tif'
p951
aS'img3_0198.tif'
p952
aS'img4_0115.tif'
p953
aS'img6_0032.tif'
p954
aS'img3_0284.tif'
p955
aS'img4_0094.tif'
p956
aS'img3_0228.tif'
p957
aS'img5_0150.tif'
p958
aS'img7_0134.tif'
p959
aS'img3_0420.tif'
p960
aS'img2_0060.tif'
p961
aS'img5_0005.tif'
p962
aS'img5_0132.tif'
p963
aS'img6_0095.tif'
p964
aS'img2_0056.tif'
p965
aS'img3_0288.tif'
p966
aS'img3_0346.tif'
p967
aS'img4_0183.tif'
p968
aS'img5_0034.tif'
p969
aS'img8_0031.tif'
p970
aS'img7_0031.tif'
p971
aS'img3_0409.tif'
p972
aS'img2_0150.tif'
p973
aS'img5_0025.tif'
p974
aS'img7_0060.tif'
p975
aS'img7_0054.tif'
p976
aS'img4_0137.tif'
p977
aS'img8_0003.tif'
p978
aS'img4_0102.tif'
p979
aS'img3_0423.tif'
p980
aS'img7_0058.tif'
p981
aS'img2_0061.tif'
p982
aS'img3_0025.tif'
p983
aS'img3_0116.tif'
p984
aS'img8_0076.tif'
p985
aS'img4_0263.tif'
p986
aS'img2_0088.tif'
p987
aS'img2_0026.tif'
p988
aS'img1_0115.tif'
p989
aS'img7_0155.tif'
p990
aS'img2_0135.tif'
p991
aS'img4_0258.tif'
p992
aS'img1_0179.tif'
p993
aS'img4_0003.tif'
p994
aS'img3_0152.tif'
p995
aS'img2_0106.tif'
p996
aS'img3_0401.tif'
p997
aS'img1_0123.tif'
p998
aS'img8_0093.tif'
p999
aS'img8_0051.tif'
p1000
aS'img3_0230.tif'
p1001
aS'img1_0072.tif'
p1002
aS'img6_0040.tif'
p1003
aS'img3_0258.tif'
p1004
aS'img2_0149.tif'
p1005
aS'img3_0075.tif'
p1006
aS'img5_0026.tif'
p1007
aS'img2_0105.tif'
p1008
aS'img5_0056.tif'
p1009
aS'img4_0151.tif'
p1010
aS'img4_0103.tif'
p1011
aS'img1_0227.tif'
p1012
aS'img3_0282.tif'
p1013
aS'img1_0267.tif'
p1014
aS'img2_0093.tif'
p1015
aS'img2_0055.tif'
p1016
aS'img3_0092.tif'
p1017
aS'img8_0057.tif'
p1018
aS'img5_0012.tif'
p1019
aS'img4_0129.tif'
p1020
aS'img5_0113.tif'
p1021
aS'img3_0126.tif'
p1022
aS'img3_0222.tif'
p1023
aS'img7_0074.tif'
p1024
aS'img3_0098.tif'
p1025
aS'img5_0081.tif'
p1026
aS'img6_0098.tif'
p1027
aS'img4_0140.tif'
p1028
aS'img5_0118.tif'
p1029
aS'img7_0018.tif'
p1030
aS'img4_0009.tif'
p1031
aS'img7_0176.tif'
p1032
aS'img3_0009.tif'
p1033
aS'img6_0035.tif'
p1034
aS'img4_0008.tif'
p1035
aS'img7_0152.tif'
p1036
aS'img6_0111.tif'
p1037
aS'img7_0184.tif'
p1038
aS'img3_0417.tif'
p1039
aS'img4_0049.tif'
p1040
aS'img1_0220.tif'
p1041
aS'img5_0041.tif'
p1042
aS'img1_0268.tif'
p1043
aS'img1_0150.tif'
p1044
aS'img2_0108.tif'
p1045
aS'img3_0347.tif'
p1046
aS'img5_0107.tif'
p1047
aS'img8_0118.tif'
p1048
aS'img4_0023.tif'
p1049
aS'img8_0062.tif'
p1050
aS'img4_0106.tif'
p1051
aS'img3_0177.tif'
p1052
aS'img1_0258.tif'
p1053
aS'img8_0088.tif'
p1054
aS'img2_0168.tif'
p1055
aS'img3_0032.tif'
p1056
aS'img2_0183.tif'
p1057
aS'img6_0016.tif'
p1058
aS'img4_0266.tif'
p1059
aS'img3_0412.tif'
p1060
aS'img1_0011.tif'
p1061
aS'img3_0168.tif'
p1062
aS'img5_0134.tif'
p1063
aS'img3_0136.tif'
p1064
aS'img3_0119.tif'
p1065
aS'img3_0394.tif'
p1066
aS'img2_0011.tif'
p1067
aS'img8_0132.tif'
p1068
aS'img1_0192.tif'
p1069
aS'img1_0005.tif'
p1070
aS'img7_0160.tif'
p1071
aS'img7_0182.tif'
p1072
aS'img8_0006.tif'
p1073
aS'img5_0131.tif'
p1074
aS'img7_0053.tif'
p1075
aS'img1_0135.tif'
p1076
aS'img3_0208.tif'
p1077
aS'img2_0209.tif'
p1078
aS'img1_0116.tif'
p1079
aS'img7_0095.tif'
p1080
aS'img5_0042.tif'
p1081
aS'img4_0037.tif'
p1082
aS'img7_0027.tif'
p1083
aS'img1_0251.tif'
p1084
aS'img3_0192.tif'
p1085
aS'img6_0071.tif'
p1086
aS'img1_0237.tif'
p1087
aS'img3_0087.tif'
p1088
aS'img2_0076.tif'
p1089
aS'img7_0106.tif'
p1090
aS'img3_0019.tif'
p1091
aS'img5_0006.tif'
p1092
aS'img1_0018.tif'
p1093
aS'img8_0047.tif'
p1094
aS'img1_0109.tif'
p1095
aS'img6_0102.tif'
p1096
aS'img1_0133.tif'
p1097
aS'img6_0089.tif'
p1098
aS'img2_0003.tif'
p1099
aS'img4_0011.tif'
p1100
aS'img7_0175.tif'
p1101
aS'img7_0062.tif'
p1102
aS'img3_0134.tif'
p1103
aS'img1_0029.tif'
p1104
aS'img6_0039.tif'
p1105
aS'img3_0370.tif'
p1106
aS'img5_0001.tif'
p1107
aS'img2_0148.tif'
p1108
aS'img1_0205.tif'
p1109
aS'img4_0211.tif'
p1110
aS'img5_0092.tif'
p1111
aS'img2_0200.tif'
p1112
aS'img3_0314.tif'
p1113
aS'img4_0262.tif'
p1114
aS'img4_0139.tif'
p1115
aS'img1_0260.tif'
p1116
aS'img1_0245.tif'
p1117
aS'img1_0080.tif'
p1118
aS'img4_0017.tif'
p1119
aS'img6_0050.tif'
p1120
aS'img2_0143.tif'
p1121
aS'img2_0015.tif'
p1122
aS'img2_0223.tif'
p1123
aS'img1_0229.tif'
p1124
aS'img4_0212.tif'
p1125
aS'img3_0350.tif'
p1126
aS'img2_0109.tif'
p1127
aS'img5_0068.tif'
p1128
aS'img5_0124.tif'
p1129
aS'img5_0059.tif'
p1130
aS'img7_0118.tif'
p1131
aS'img3_0235.tif'
p1132
aS'img3_0231.tif'
p1133
aS'img4_0059.tif'
p1134
aS'img3_0140.tif'
p1135
aS'img4_0120.tif'
p1136
aS'img1_0056.tif'
p1137
aS'img7_0030.tif'
p1138
aS'img4_0201.tif'
p1139
aS'img3_0268.tif'
p1140
aS'img2_0177.tif'
p1141
aS'img5_0038.tif'
p1142
aS'img1_0034.tif'
p1143
aS'img1_0199.tif'
p1144
aS'img6_0055.tif'
p1145
aS'img1_0039.tif'
p1146
aS'img1_0202.tif'
p1147
aS'img3_0065.tif'
p1148
aS'img3_0246.tif'
p1149
aS'img1_0051.tif'
p1150
aS'img3_0076.tif'
p1151
aS'img1_0064.tif'
p1152
aS'img4_0171.tif'
p1153
aS'img4_0021.tif'
p1154
aS'img3_0408.tif'
p1155
aS'img3_0263.tif'
p1156
aS'img1_0159.tif'
p1157
aS'img3_0293.tif'
p1158
aS'img1_0282.tif'
p1159
aS'img3_0102.tif'
p1160
aS'img1_0074.tif'
p1161
aS'img6_0001.tif'
p1162
aS'img5_0148.tif'
p1163
aS'img2_0145.tif'
p1164
aS'img1_0096.tif'
p1165
aS'img1_0152.tif'
p1166
aS'img8_0097.tif'
p1167
aS'img2_0174.tif'
p1168
aS'img1_0054.tif'
p1169
aS'img1_0151.tif'
p1170
aS'img2_0126.tif'
p1171
aS'img2_0124.tif'
p1172
aS'img2_0044.tif'
p1173
aS'img3_0254.tif'
p1174
aS'img3_0393.tif'
p1175
aS'img5_0066.tif'
p1176
aS'img2_0184.tif'
p1177
aS'img2_0152.tif'
p1178
aS'img7_0097.tif'
p1179
aS'img1_0250.tif'
p1180
aS'img1_0255.tif'
p1181
aS'img3_0037.tif'
p1182
aS'img6_0112.tif'
p1183
aS'img8_0066.tif'
p1184
aS'img4_0181.tif'
p1185
aS'img1_0079.tif'
p1186
aS'img2_0122.tif'
p1187
aS'img6_0056.tif'
p1188
aS'img5_0147.tif'
p1189
aS'img3_0145.tif'
p1190
aS'img3_0265.tif'
p1191
aS'img3_0112.tif'
p1192
aS'img3_0362.tif'
p1193
aS'img3_0015.tif'
p1194
aS'img6_0058.tif'
p1195
aS'img3_0099.tif'
p1196
aS'img2_0091.tif'
p1197
aS'img2_0006.tif'
p1198
aS'img1_0166.tif'
p1199
aS'img4_0226.tif'
p1200
aS'img8_0117.tif'
p1201
aS'img2_0198.tif'
p1202
aS'img7_0061.tif'
p1203
aS'img6_0096.tif'
p1204
aS'img7_0153.tif'
p1205
aS'img3_0017.tif'
p1206
aS'img3_0153.tif'
p1207
aS'img3_0083.tif'
p1208
aS'img8_0086.tif'
p1209
aS'img4_0100.tif'
p1210
aS'img8_0079.tif'
p1211
aS'img3_0127.tif'
p1212
aS'img1_0143.tif'
p1213
aS'img1_0044.tif'
p1214
aS'img3_0275.tif'
p1215
aS'img1_0257.tif'
p1216
aS'img3_0158.tif'
p1217
aS'img4_0104.tif'
p1218
aS'img4_0255.tif'
p1219
aS'img6_0104.tif'
p1220
aS'img1_0272.tif'
p1221
aS'img3_0186.tif'
p1222
aS'img5_0080.tif'
p1223
aS'img2_0010.tif'
p1224
aS'img2_0132.tif'
p1225
aS'img7_0101.tif'
p1226
aS'img3_0248.tif'
p1227
aS'img7_0139.tif'
p1228
aS'img3_0113.tif'
p1229
aS'img1_0001.tif'
p1230
aS'img4_0067.tif'
p1231
aS'img2_0201.tif'
p1232
aS'img2_0197.tif'
p1233
aS'img5_0141.tif'
p1234
aS'img2_0050.tif'
p1235
aS'img1_0180.tif'
p1236
aS'img1_0100.tif'
p1237
aS'img6_0013.tif'
p1238
aS'img8_0025.tif'
p1239
aS'img7_0010.tif'
p1240
aS'img4_0246.tif'
p1241
aS'img6_0010.tif'
p1242
aS'img6_0009.tif'
p1243
aS'img5_0031.tif'
p1244
aS'img3_0345.tif'
p1245
aS'img5_0070.tif'
p1246
aS'img4_0055.tif'
p1247
aS'img3_0069.tif'
p1248
aS'img7_0162.tif'
p1249
aS'img3_0334.tif'
p1250
aS'img7_0113.tif'
p1251
aS'img1_0225.tif'
p1252
aS'img5_0096.tif'
p1253
aS'img2_0164.tif'
p1254
aS'img3_0428.tif'
p1255
aS'img7_0138.tif'
p1256
aS'img5_0142.tif'
p1257
aS'img3_0364.tif'
p1258
aS'img2_0202.tif'
p1259
aS'img2_0157.tif'
p1260
aS'img1_0028.tif'
p1261
aS'img5_0128.tif'
p1262
aS'img7_0090.tif'
p1263
aS'img3_0306.tif'
p1264
aS'img3_0379.tif'
p1265
aS'img1_0186.tif'
p1266
aS'img5_0002.tif'
p1267
aS'img2_0081.tif'
p1268
aS'img4_0030.tif'
p1269
aS'img4_0130.tif'
p1270
aS'img4_0249.tif'
p1271
aS'img1_0141.tif'
p1272
aS'img4_0182.tif'
p1273
aS'img5_0151.tif'
p1274
aS'img7_0171.tif'
p1275
aS'img3_0240.tif'
p1276
aS'img2_0035.tif'
p1277
aS'img8_0101.tif'
p1278
aS'img7_0001.tif'
p1279
aS'img5_0152.tif'
p1280
aS'img3_0341.tif'
p1281
aS'img2_0048.tif'
p1282
aS'img7_0103.tif'
p1283
aS'img4_0208.tif'
p1284
aS'img2_0085.tif'
p1285
aS'img4_0235.tif'
p1286
aS'img7_0002.tif'
p1287
aS'img4_0039.tif'
p1288
aS'img1_0190.tif'
p1289
aS'img2_0199.tif'
p1290
aS'img2_0180.tif'
p1291
aS'img7_0119.tif'
p1292
aS'img1_0224.tif'
p1293
aS'img1_0125.tif'
p1294
aS'img3_0144.tif'
p1295
aS'img2_0098.tif'
p1296
aS'img3_0299.tif'
p1297
aS'img1_0232.tif'
p1298
aS'img4_0149.tif'
p1299
aS'img7_0068.tif'
p1300
aS'img4_0002.tif'
p1301
aS'img8_0116.tif'
p1302
aS'img1_0065.tif'
p1303
aS'img4_0004.tif'
p1304
aS'img7_0183.tif'
p1305
aS'img4_0065.tif'
p1306
aS'img5_0102.tif'
p1307
aS'img3_0181.tif'
p1308
aS'img3_0016.tif'
p1309
aS'img4_0245.tif'
p1310
aS'img2_0191.tif'
p1311
aS'img3_0392.tif'
p1312
aS'img3_0390.tif'
p1313
aS'img3_0031.tif'
p1314
aS'img1_0278.tif'
p1315
aS'img3_0281.tif'
p1316
aS'img3_0146.tif'
p1317
aS'img3_0067.tif'
p1318
aS'img4_0228.tif'
p1319
aS'img1_0157.tif'
p1320
aS'img1_0280.tif'
p1321
aS'img2_0205.tif'
p1322
aS'img3_0276.tif'
p1323
aS'img3_0266.tif'
p1324
aS'img5_0044.tif'
p1325
aS'img4_0195.tif'
p1326
aS'img3_0302.tif'
p1327
aS'img4_0074.tif'
p1328
aS'img3_0123.tif'
p1329
aS'img4_0026.tif'
p1330
aS'img3_0252.tif'
p1331
aS'img5_0053.tif'
p1332
aS'img6_0011.tif'
p1333
aS'img2_0070.tif'
p1334
aS'img8_0022.tif'
p1335
aS'img3_0023.tif'
p1336
aS'img2_0190.tif'
p1337
aS'img3_0007.tif'
p1338
aS'img4_0145.tif'
p1339
aS'img2_0175.tif'
p1340
aS'img1_0271.tif'
p1341
aS'img1_0201.tif'
p1342
aS'img8_0002.tif'
p1343
aS'img4_0222.tif'
p1344
aS'img1_0215.tif'
p1345
aS'img5_0004.tif'
p1346
aS'img7_0052.tif'
p1347
aS'img2_0075.tif'
p1348
aS'img4_0220.tif'
p1349
aS'img5_0133.tif'
p1350
aS'img7_0178.tif'
p1351
aS'img3_0426.tif'
p1352
aS'img6_0084.tif'
p1353
aS'img6_0090.tif'
p1354
aS'img7_0165.tif'
p1355
aS'img6_0026.tif'
p1356
aS'img2_0176.tif'
p1357
aS'img2_0213.tif'
p1358
aS'img7_0185.tif'
p1359
aS'img5_0130.tif'
p1360
aS'img3_0014.tif'
p1361
aS'img1_0112.tif'
p1362
aS'img5_0135.tif'
p1363
aS'img1_0200.tif'
p1364
aS'img3_0118.tif'
p1365
aS'img2_0005.tif'
p1366
aS'img2_0115.tif'
p1367
aS'img3_0381.tif'
p1368
aS'img6_0061.tif'
p1369
aS'img6_0065.tif'
p1370
aS'img2_0064.tif'
p1371
aS'img5_0103.tif'
p1372
aS'img4_0022.tif'
p1373
aS'img6_0077.tif'
p1374
aS'img3_0413.tif'
p1375
aS'img3_0344.tif'
p1376
aS'img5_0047.tif'
p1377
aS'img5_0106.tif'
p1378
aS'img5_0079.tif'
p1379
aS'img4_0210.tif'
p1380
aS'img7_0161.tif'
p1381
aS'img5_0090.tif'
p1382
aS'img5_0095.tif'
p1383
aS'img3_0241.tif'
p1384
aS'img3_0333.tif'
p1385
aS'img8_0050.tif'
p1386
aS'img2_0063.tif'
p1387
aS'img3_0360.tif'
p1388
aS'img2_0097.tif'
p1389
aS'img3_0216.tif'
p1390
aS'img5_0061.tif'
p1391
aS'img7_0173.tif'
p1392
aS'img3_0003.tif'
p1393
aS'img3_0062.tif'
p1394
aS'img1_0073.tif'
p1395
aS'img1_0053.tif'
p1396
aS'img7_0168.tif'
p1397
aS'img4_0110.tif'
p1398
aS'img4_0248.tif'
p1399
aS'img7_0011.tif'
p1400
aS'img5_0052.tif'
p1401
aS'img3_0384.tif'
p1402
aS'img7_0124.tif'
p1403
aS'img1_0025.tif'
p1404
aS'img8_0011.tif'
p1405
aS'img2_0141.tif'
p1406
aS'img7_0050.tif'
p1407
aS'img4_0090.tif'
p1408
aS'img1_0168.tif'
p1409
aS'img2_0058.tif'
p1410
aS'img4_0118.tif'
p1411
aS'img8_0094.tif'
p1412
aS'img7_0059.tif'
p1413
aS'img6_0021.tif'
p1414
aS'img7_0163.tif'
p1415
aS'img4_0192.tif'
p1416
aS'img3_0227.tif'
p1417
aS'img4_0031.tif'
p1418
aS'img1_0128.tif'
p1419
aS'img7_0172.tif'
p1420
aS'img3_0068.tif'
p1421
aS'img3_0103.tif'
p1422
aS'img4_0162.tif'
p1423
aS'img3_0321.tif'
p1424
aS'img8_0103.tif'
p1425
aS'img8_0033.tif'
p1426
aS'img7_0009.tif'
p1427
aS'img8_0016.tif'
p1428
aS'img4_0154.tif'
p1429
aS'img5_0048.tif'
p1430
aS'img2_0034.tif'
p1431
aS'img1_0167.tif'
p1432
aS'img3_0322.tif'
p1433
aS'img5_0111.tif'
p1434
aS'img2_0166.tif'
p1435
aS'img8_0070.tif'
p1436
aS'img7_0159.tif'
p1437
aS'img2_0160.tif'
p1438
aS'img3_0325.tif'
p1439
aS'img1_0244.tif'
p1440
aS'img3_0066.tif'
p1441
aS'img1_0265.tif'
p1442
aS'img1_0031.tif'
p1443
aS'img3_0047.tif'
p1444
aS'img2_0133.tif'
p1445
aS'img3_0132.tif'
p1446
aS'img1_0154.tif'
p1447
aS'img2_0102.tif'
p1448
aS'img4_0029.tif'
p1449
aS'img3_0013.tif'
p1450
aS'img8_0019.tif'
p1451
aS'img8_0015.tif'
p1452
aS'img7_0025.tif'
p1453
aS'img5_0055.tif'
p1454
aS'img6_0022.tif'
p1455
aS'img7_0104.tif'
p1456
aS'img7_0105.tif'
p1457
aS'img3_0185.tif'
p1458
aS'img6_0028.tif'
p1459
aS'img3_0026.tif'
p1460
aS'img3_0072.tif'
p1461
aS'img4_0087.tif'
p1462
aS'img5_0154.tif'
p1463
aS'img3_0247.tif'
p1464
aS'img3_0308.tif'
p1465
aS'img8_0089.tif'
p1466
aS'img1_0274.tif'
p1467
aS'img4_0040.tif'
p1468
aS'img3_0338.tif'
p1469
aS'img1_0216.tif'
p1470
aS'img1_0121.tif'
p1471
aS'img3_0211.tif'
p1472
aS'img3_0411.tif'
p1473
aS'img7_0131.tif'
p1474
aS'img3_0361.tif'
p1475
aS'img2_0051.tif'
p1476
aS'img5_0155.tif'
p1477
aS'img1_0120.tif'
p1478
aS'img7_0048.tif'
p1479
aS'img4_0251.tif'
p1480
aS'img1_0235.tif'
p1481
aS'img3_0028.tif'
p1482
aS'img2_0171.tif'
p1483
aS'img1_0234.tif'
p1484
aS'img3_0167.tif'
p1485
aS'img5_0083.tif'
p1486
aS'img7_0141.tif'
p1487
aS'img7_0021.tif'
p1488
aS'img5_0028.tif'
p1489
aS'img4_0131.tif'
p1490
aS'img2_0179.tif'
p1491
aS'img3_0214.tif'
p1492
aS'img8_0119.tif'
p1493
aS'img4_0234.tif'
p1494
aS'img8_0069.tif'
p1495
aS'img3_0174.tif'
p1496
aS'img3_0245.tif'
p1497
aS'img3_0273.tif'
p1498
aS'img3_0391.tif'
p1499
aS'img4_0058.tif'
p1500
aS'img3_0088.tif'
p1501
aS'img1_0204.tif'
p1502
aS'img5_0065.tif'
p1503
aS'img7_0023.tif'
p1504
aS'img4_0164.tif'
p1505
aS'img3_0160.tif'
p1506
aS'img1_0055.tif'
p1507
aS'img6_0067.tif'
p1508
aS'img2_0001.tif'
p1509
aS'img1_0169.tif'
p1510
aS'img6_0066.tif'
p1511
aS'img7_0089.tif'
p1512
aS'img4_0225.tif'
p1513
aS'img1_0069.tif'
p1514
aS'img7_0186.tif'
p1515
aS'img4_0060.tif'
p1516
aS'img5_0116.tif'
p1517
aS'img1_0009.tif'
p1518
aS'img3_0114.tif'
p1519
aS'img7_0136.tif'
p1520
aS'img6_0017.tif'
p1521
aS'img3_0280.tif'
p1522
aS'img3_0253.tif'
p1523
aS'img7_0087.tif'
p1524
aS'img7_0098.tif'
p1525
aS'img1_0110.tif'
p1526
aS'img3_0091.tif'
p1527
aS'img4_0143.tif'
p1528
aS'img3_0141.tif'
p1529
aS'img3_0111.tif'
p1530
aS'img8_0131.tif'
p1531
aS'img4_0075.tif'
p1532
aS'img1_0101.tif'
p1533
aS'img1_0161.tif'
p1534
aS'img5_0007.tif'
p1535
aS'img3_0171.tif'
p1536
aS'img4_0155.tif'
p1537
aS'img3_0294.tif'
p1538
aS'img8_0143.tif'
p1539
aS'img3_0315.tif'
p1540
aS'img8_0090.tif'
p1541
aS'img1_0193.tif'
p1542
aS'img4_0213.tif'
p1543
aS'img8_0055.tif'
p1544
aS'img4_0176.tif'
p1545
aS'img7_0026.tif'
p1546
aS'img1_0047.tif'
p1547
aS'img4_0229.tif'
p1548
aS'img3_0352.tif'
p1549
aS'img3_0295.tif'
p1550
aS'img3_0332.tif'
p1551
aS'img4_0015.tif'
p1552
aS'img2_0140.tif'
p1553
aS'img7_0039.tif'
p1554
aS'img4_0238.tif'
p1555
aS'img1_0082.tif'
p1556
aS'img3_0001.tif'
p1557
aS'img4_0045.tif'
p1558
aS'img3_0261.tif'
p1559
aS'img1_0148.tif'
p1560
aS'img8_0144.tif'
p1561
aS'img1_0174.tif'
p1562
aS'img4_0036.tif'
p1563
aS'img4_0061.tif'
p1564
aS'img8_0136.tif'
p1565
aS'img2_0066.tif'
p1566
aS'img2_0065.tif'
p1567
aS'img2_0082.tif'
p1568
aS'img3_0147.tif'
p1569
aS'img1_0131.tif'
p1570
aS'img6_0109.tif'
p1571
aS'img2_0224.tif'
p1572
aS'img4_0186.tif'
p1573
aS'img3_0086.tif'
p1574
aS'img3_0249.tif'
p1575
aS'img1_0197.tif'
p1576
aS'img2_0036.tif'
p1577
aS'img3_0405.tif'
p1578
aS'img6_0041.tif'
p1579
aS'img3_0422.tif'
p1580
aS'img3_0150.tif'
p1581
aS'img4_0096.tif'
p1582
aS'img3_0115.tif'
p1583
aS'img4_0224.tif'
p1584
aS'img4_0193.tif'
p1585
aS'img6_0008.tif'
p1586
aS'img6_0076.tif'
p1587
aS'img8_0059.tif'
p1588
aS'img5_0125.tif'
p1589
aS'img1_0006.tif'
p1590
aS'img1_0243.tif'
p1591
aS'img6_0078.tif'
p1592
aS'img4_0097.tif'
p1593
aS'img1_0175.tif'
p1594
aS'img8_0124.tif'
p1595
aS'img3_0157.tif'
p1596
aS'img4_0124.tif'
p1597
aS'img7_0130.tif'
p1598
aS'img7_0075.tif'
p1599
aS'img5_0071.tif'
p1600
aS'img8_0073.tif'
p1601
aS'img4_0050.tif'
p1602
aS'img2_0196.tif'
p1603
aS'img1_0098.tif'
p1604
aS'img3_0108.tif'
p1605
aS'img1_0170.tif'
p1606
aS'img4_0018.tif'
p1607
aS'img3_0149.tif'
p1608
aS'img3_0340.tif'
p1609
aS'img5_0137.tif'
p1610
aS'img8_0080.tif'
p1611
aS'img4_0260.tif'
p1612
aS'img4_0109.tif'
p1613
aS'img2_0147.tif'
p1614
aS'img3_0403.tif'
p1615
aS'img2_0114.tif'
p1616
aS'img4_0242.tif'
p1617
aS'img5_0110.tif'
p1618
aS'img1_0132.tif'
p1619
aS'img6_0064.tif'
p1620
aS'img4_0206.tif'
p1621
aS'img7_0084.tif'
p1622
aS'img5_0093.tif'
p1623
aS'img7_0035.tif'
p1624
aS'img3_0207.tif'
p1625
aS'img8_0045.tif'
p1626
aS'img5_0109.tif'
p1627
aS'img4_0098.tif'
p1628
aS'img1_0283.tif'
p1629
aS'img2_0142.tif'
p1630
aS'img2_0218.tif'
p1631
aS'img7_0188.tif'
p1632
aS'img3_0368.tif'
p1633
aS'img3_0138.tif'
p1634
aS'img7_0081.tif'
p1635
aS'img5_0105.tif'
p1636
aS'img5_0104.tif'
p1637
aS'img8_0092.tif'
p1638
aS'img3_0402.tif'
p1639
aS'img3_0380.tif'
p1640
aS'img6_0046.tif'
p1641
aS'img7_0127.tif'
p1642
aS'img3_0331.tif'
p1643
aS'img5_0050.tif'
p1644
aS'img4_0196.tif'
p1645
aS'img5_0043.tif'
p1646
aS'img2_0037.tif'
p1647
aS'img1_0266.tif'
p1648
aS'img1_0093.tif'
p1649
aS'img4_0205.tif'
p1650
aS'img3_0006.tif'
p1651
aS'img3_0243.tif'
p1652
aS'img3_0050.tif'
p1653
aS'img6_0018.tif'
p1654
aS'img4_0190.tif'
p1655
aS'img2_0128.tif'
p1656
aS'img1_0158.tif'
p1657
aS'img2_0217.tif'
p1658
aS'img1_0207.tif'
p1659
aS'img1_0075.tif'
p1660
aS'img3_0292.tif'
p1661
aS'img1_0155.tif'
p1662
aS'img5_0021.tif'
p1663
aS'img8_0060.tif'
p1664
aS'img2_0074.tif'
p1665
aS'img4_0187.tif'
p1666
aS'img1_0284.tif'
p1667
aS'img8_0078.tif'
p1668
aS'img7_0115.tif'
p1669
aS'img7_0043.tif'
p1670
aS'img4_0199.tif'
p1671
aS'img5_0088.tif'
p1672
aS'img1_0136.tif'
p1673
aS'img3_0244.tif'
p1674
aS'img3_0064.tif'
p1675
aS'img2_0009.tif'
p1676
aS'img1_0040.tif'
p1677
aS'img1_0223.tif'
p1678
aS'img1_0050.tif'
p1679
aS'img3_0193.tif'
p1680
aS'img3_0418.tif'
p1681
aS'img1_0146.tif'
p1682
aS'img4_0095.tif'
p1683
aS'img2_0167.tif'
p1684
aS'img2_0121.tif'
p1685
aS'img1_0134.tif'
p1686
aS'img8_0039.tif'
p1687
aS'img3_0197.tif'
p1688
aS'img3_0176.tif'
p1689
aS'img4_0207.tif'
p1690
aS'img3_0399.tif'
p1691
aS'img1_0102.tif'
p1692
aS'img4_0138.tif'
p1693
aS'img7_0132.tif'
p1694
aS'img5_0143.tif'
p1695
aS'img8_0013.tif'
p1696
aS'img4_0133.tif'
p1697
aS'img8_0032.tif'
p1698
aS'img4_0054.tif'
p1699
aS'img3_0071.tif'
p1700
aS'img4_0128.tif'
p1701
aS'img2_0181.tif'
p1702
aS'img3_0324.tif'
p1703
aS'img2_0041.tif'
p1704
aS'img3_0404.tif'
p1705
aS'img4_0132.tif'
p1706
aS'img5_0019.tif'
p1707
aS'img8_0009.tif'
p1708
aS'img1_0059.tif'
p1709
aS'img5_0121.tif'
p1710
aS'img4_0142.tif'
p1711
aS'img7_0079.tif'
p1712
aS'img3_0339.tif'
p1713
aS'img3_0165.tif'
p1714
aS'img8_0083.tif'
p1715
aS'img4_0177.tif'
p1716
aS'img2_0220.tif'
p1717
aS'img5_0017.tif'
p1718
aS'img7_0135.tif'
p1719
aS'img5_0036.tif'
p1720
aS'img1_0010.tif'
p1721
aS'img2_0018.tif'
p1722
aS'img3_0081.tif'
p1723
aS'img1_0164.tif'
p1724
aS'img4_0063.tif'
p1725
aS'img3_0040.tif'
p1726
aS'img8_0065.tif'
p1727
aS'img8_0126.tif'
p1728
aS'img7_0122.tif'
p1729
aS'img3_0348.tif'
p1730
aS'img3_0164.tif'
p1731
aS'img8_0082.tif'
p1732
aS'img1_0212.tif'
p1733
aS'img3_0074.tif'
p1734
aS'img3_0429.tif'
p1735
aS'img4_0237.tif'
p1736
aS'img3_0059.tif'
p1737
aS'img3_0232.tif'
p1738
aS'img8_0027.tif'
p1739
aS'img6_0059.tif'
p1740
aS'img3_0328.tif'
p1741
aS'img2_0112.tif'
p1742
aS'img3_0279.tif'
p1743
aS'img8_0044.tif'
p1744
aS'img3_0142.tif'
p1745
aS'img1_0252.tif'
p1746
aS'img3_0039.tif'
p1747
aS'img2_0189.tif'
p1748
aS'img4_0168.tif'
p1749
aS'img6_0049.tif'
p1750
aS'img4_0033.tif'
p1751
aS'img1_0016.tif'
p1752
aS'img8_0056.tif'
p1753
aS'img7_0088.tif'
p1754
aS'img4_0231.tif'
p1755
aS'img1_0032.tif'
p1756
aS'img8_0020.tif'
p1757
aS'img6_0103.tif'
p1758
aS'img1_0144.tif'
p1759
aS'img1_0259.tif'
p1760
aS'img4_0080.tif'
p1761
aS'img3_0117.tif'
p1762
aS'img4_0114.tif'
p1763
aS'img8_0129.tif'
p1764
aS'img3_0356.tif'
p1765
aS'img5_0014.tif'
p1766
aS'img4_0016.tif'
p1767
aS'img4_0172.tif'
p1768
aS'img7_0158.tif'
p1769
aS'img4_0056.tif'
p1770
aS'img7_0015.tif'
p1771
aS'img4_0079.tif'
p1772
aS'img3_0383.tif'
p1773
aS'img1_0279.tif'
p1774
aS'img8_0054.tif'
p1775
aS'img8_0075.tif'
p1776
aS'img3_0277.tif'
p1777
aS'img1_0256.tif'
p1778
aS'img2_0125.tif'
p1779
aS'img3_0035.tif'
p1780
aS'img1_0145.tif'
p1781
aS'img2_0040.tif'
p1782
aS'img4_0046.tif'
p1783
aS'img2_0047.tif'
p1784
aS'img3_0183.tif'
p1785
aS'img4_0047.tif'
p1786
aS'img1_0070.tif'
p1787
aS'img6_0086.tif'
p1788
aS'img5_0091.tif'
p1789
aS'img3_0212.tif'
p1790
aS'img4_0038.tif'
p1791
aS'img3_0311.tif'
p1792
aS'img7_0014.tif'
p1793
aS'img5_0075.tif'
p1794
aS'img4_0072.tif'
p1795
aS'img1_0085.tif'
p1796
aS'img3_0053.tif'
p1797
aS'img6_0079.tif'
p1798
aS'img5_0077.tif'
p1799
aS'img4_0127.tif'
p1800
aS'img3_0070.tif'
p1801
aS'img3_0414.tif'
p1802
aS'img1_0156.tif'
p1803
aS'img1_0176.tif'
p1804
aS'img3_0008.tif'
p1805
aS'img8_0087.tif'
p1806
a.