(lp0
S'img3_0029.tif'
p1
aS'img6_0029.tif'
p2
aS'img3_0004.tif'
p3
aS'img1_0019.tif'
p4
aS'img4_0024.tif'
p5
aS'img4_0019.tif'
p6
aS'img1_0012.tif'
p7
aS'img6_0025.tif'
p8
aS'img7_0016.tif'
p9
aS'img1_0003.tif'
p10
aS'img5_0008.tif'
p11
aS'img1_0022.tif'
p12
aS'img4_0006.tif'
p13
aS'img7_0003.tif'
p14
aS'img3_0005.tif'
p15
aS'img3_0044.tif'
p16
aS'img4_0034.tif'
p17
aS'img7_0028.tif'
p18
aS'img1_0035.tif'
p19
aS'img6_0020.tif'
p20
aS'img3_0034.tif'
p21
aS'img1_0014.tif'
p22
aS'img3_0020.tif'
p23
aS'img3_0018.tif'
p24
aS'img1_0024.tif'
p25
aS'img8_0008.tif'
p26
aS'img2_0017.tif'
p27
aS'img3_0052.tif'
p28
aS'img3_0043.tif'
p29
aS'img6_0043.tif'
p30
aS'img2_0025.tif'
p31
aS'img4_0027.tif'
p32
aS'img6_0014.tif'
p33
aS'img7_0013.tif'
p34
aS'img1_0008.tif'
p35
aS'img2_0029.tif'
p36
aS'img4_0042.tif'
p37
aS'img4_0012.tif'
p38
aS'img1_0017.tif'
p39
aS'img1_0002.tif'
p40
aS'img2_0022.tif'
p41
aS'img4_0041.tif'
p42
aS'img6_0027.tif'
p43
aS'img4_0028.tif'
p44
aS'img7_0032.tif'
p45
aS'img2_0030.tif'
p46
aS'img3_0045.tif'
p47
aS'img8_0004.tif'
p48
aS'img3_0011.tif'
p49
aS'img7_0037.tif'
p50
aS'img5_0009.tif'
p51
aS'img2_0023.tif'
p52
aS'img7_0041.tif'
p53
aS'img1_0030.tif'
p54
aS'img2_0031.tif'
p55
aS'img1_0033.tif'
p56
aS'img5_0020.tif'
p57
aS'img1_0015.tif'
p58
aS'img2_0004.tif'
p59
aS'img6_0037.tif'
p60
aS'img5_0011.tif'
p61
aS'img2_0014.tif'
p62
aS'img4_0014.tif'
p63
aS'img3_0012.tif'
p64
aS'img2_0027.tif'
p65
aS'img3_0041.tif'
p66
aS'img3_0056.tif'
p67
aS'img1_0007.tif'
p68
aS'img1_0013.tif'
p69
aS'img4_0010.tif'
p70
aS'img6_0003.tif'
p71
aS'img5_0003.tif'
p72
aS'img4_0020.tif'
p73
aS'img6_0012.tif'
p74
aS'img6_0036.tif'
p75
aS'img3_0057.tif'
p76
aS'img3_0030.tif'
p77
aS'img3_0054.tif'
p78
aS'img2_0043.tif'
p79
aS'img4_0005.tif'
p80
aS'img7_0005.tif'
p81
aS'img2_0033.tif'
p82
aS'img4_0044.tif'
p83
aS'img4_0035.tif'
p84
aS'img2_0020.tif'
p85
aS'img6_0024.tif'
p86
aS'img7_0017.tif'
p87
aS'img3_0033.tif'
p88
aS'img6_0019.tif'
p89
aS'img6_0031.tif'
p90
aS'img3_0042.tif'
p91
aS'img3_0046.tif'
p92
aS'img2_0024.tif'
p93
aS'img1_0004.tif'
p94
aS'img5_0013.tif'
p95
aS'img4_0001.tif'
p96
aS'img7_0007.tif'
p97
aS'img3_0010.tif'
p98
aS'img3_0022.tif'
p99
aS'img4_0025.tif'
p100
aS'img4_0032.tif'
p101
aS'img7_0019.tif'
p102
aS'img6_0002.tif'
p103
aS'img2_0019.tif'
p104
aS'img5_0018.tif'
p105
aS'img7_0040.tif'
p106
aS'img1_0026.tif'
p107
aS'img3_0049.tif'
p108
aS'img3_0002.tif'
p109
aS'img5_0015.tif'
p110
aS'img7_0033.tif'
p111
aS'img8_0001.tif'
p112
aS'img8_0010.tif'
p113
aS'img3_0055.tif'
p114
aS'img4_0043.tif'
p115
aS'img2_0012.tif'
p116
aS'img8_0007.tif'
p117
aS'img5_0010.tif'
p118
aS'img7_0008.tif'
p119
aS'img6_0038.tif'
p120
aS'img2_0016.tif'
p121
aS'img6_0006.tif'
p122
aS'img3_0036.tif'
p123
aS'img7_0020.tif'
p124
aS'img6_0004.tif'
p125
aS'img7_0036.tif'
p126
aS'img7_0029.tif'
p127
aS'img2_0013.tif'
p128
aS'img1_0023.tif'
p129
aS'img2_0039.tif'
p130
aS'img6_0005.tif'
p131
aS'img1_0027.tif'
p132
aS'img7_0012.tif'
p133
aS'img2_0045.tif'
p134
aS'img6_0007.tif'
p135
aS'img3_0048.tif'
p136
aS'img6_0023.tif'
p137
aS'img2_0007.tif'
p138
aS'img2_0042.tif'
p139
aS'img6_0015.tif'
p140
aS'img5_0016.tif'
p141
aS'img6_0030.tif'
p142
aS'img7_0024.tif'
p143
aS'img2_0032.tif'
p144
aS'img3_0038.tif'
p145
aS'img7_0034.tif'
p146
aS'img8_0005.tif'
p147
aS'img6_0042.tif'
p148
aS'img3_0021.tif'
p149
aS'img2_0021.tif'
p150
aS'img4_0007.tif'
p151
aS'img3_0027.tif'
p152
aS'img7_0022.tif'
p153
aS'img6_0034.tif'
p154
aS'img3_0024.tif'
p155
aS'img3_0051.tif'
p156
aS'img2_0038.tif'
p157
aS'img4_0013.tif'
p158
aS'img6_0033.tif'
p159
aS'img7_0004.tif'
p160
aS'img2_0046.tif'
p161
aS'img7_0006.tif'
p162
aS'img1_0021.tif'
p163
aS'img2_0008.tif'
p164
aS'img2_0002.tif'
p165
aS'img7_0038.tif'
p166
aS'img1_0020.tif'
p167
aS'img2_0028.tif'
p168
aS'img6_0032.tif'
p169
aS'img5_0005.tif'
p170
aS'img7_0031.tif'
p171
aS'img8_0003.tif'
p172
aS'img3_0025.tif'
p173
aS'img2_0026.tif'
p174
aS'img4_0003.tif'
p175
aS'img6_0040.tif'
p176
aS'img5_0012.tif'
p177
aS'img7_0018.tif'
p178
aS'img4_0009.tif'
p179
aS'img3_0009.tif'
p180
aS'img6_0035.tif'
p181
aS'img4_0008.tif'
p182
aS'img4_0023.tif'
p183
aS'img3_0032.tif'
p184
aS'img6_0016.tif'
p185
aS'img1_0011.tif'
p186
aS'img2_0011.tif'
p187
aS'img1_0005.tif'
p188
aS'img8_0006.tif'
p189
aS'img4_0037.tif'
p190
aS'img7_0027.tif'
p191
aS'img3_0019.tif'
p192
aS'img5_0006.tif'
p193
aS'img1_0018.tif'
p194
aS'img2_0003.tif'
p195
aS'img4_0011.tif'
p196
aS'img1_0029.tif'
p197
aS'img6_0039.tif'
p198
aS'img5_0001.tif'
p199
aS'img4_0017.tif'
p200
aS'img2_0015.tif'
p201
aS'img7_0030.tif'
p202
aS'img1_0034.tif'
p203
aS'img4_0021.tif'
p204
aS'img6_0001.tif'
p205
aS'img2_0044.tif'
p206
aS'img3_0037.tif'
p207
aS'img3_0015.tif'
p208
aS'img2_0006.tif'
p209
aS'img3_0017.tif'
p210
aS'img2_0010.tif'
p211
aS'img1_0001.tif'
p212
aS'img6_0013.tif'
p213
aS'img7_0010.tif'
p214
aS'img6_0010.tif'
p215
aS'img6_0009.tif'
p216
aS'img1_0028.tif'
p217
aS'img5_0002.tif'
p218
aS'img4_0030.tif'
p219
aS'img2_0035.tif'
p220
aS'img7_0001.tif'
p221
aS'img2_0048.tif'
p222
aS'img7_0002.tif'
p223
aS'img4_0039.tif'
p224
aS'img4_0002.tif'
p225
aS'img4_0004.tif'
p226
aS'img3_0016.tif'
p227
aS'img3_0031.tif'
p228
aS'img4_0026.tif'
p229
aS'img6_0011.tif'
p230
aS'img3_0023.tif'
p231
aS'img3_0007.tif'
p232
aS'img8_0002.tif'
p233
aS'img5_0004.tif'
p234
aS'img6_0026.tif'
p235
aS'img3_0014.tif'
p236
aS'img2_0005.tif'
p237
aS'img4_0022.tif'
p238
aS'img3_0003.tif'
p239
aS'img7_0011.tif'
p240
aS'img1_0025.tif'
p241
aS'img8_0011.tif'
p242
aS'img6_0021.tif'
p243
aS'img4_0031.tif'
p244
aS'img7_0009.tif'
p245
aS'img2_0034.tif'
p246
aS'img1_0031.tif'
p247
aS'img3_0047.tif'
p248
aS'img4_0029.tif'
p249
aS'img3_0013.tif'
p250
aS'img7_0025.tif'
p251
aS'img6_0022.tif'
p252
aS'img6_0028.tif'
p253
aS'img3_0026.tif'
p254
aS'img4_0040.tif'
p255
aS'img3_0028.tif'
p256
aS'img7_0021.tif'
p257
aS'img7_0023.tif'
p258
aS'img2_0001.tif'
p259
aS'img1_0009.tif'
p260
aS'img6_0017.tif'
p261
aS'img5_0007.tif'
p262
aS'img7_0026.tif'
p263
aS'img4_0015.tif'
p264
aS'img7_0039.tif'
p265
aS'img3_0001.tif'
p266
aS'img4_0045.tif'
p267
aS'img4_0036.tif'
p268
aS'img2_0036.tif'
p269
aS'img6_0041.tif'
p270
aS'img6_0008.tif'
p271
aS'img1_0006.tif'
p272
aS'img4_0018.tif'
p273
aS'img7_0035.tif'
p274
aS'img2_0037.tif'
p275
aS'img3_0006.tif'
p276
aS'img3_0050.tif'
p277
aS'img6_0018.tif'
p278
aS'img5_0021.tif'
p279
aS'img2_0009.tif'
p280
aS'img2_0041.tif'
p281
aS'img5_0019.tif'
p282
aS'img8_0009.tif'
p283
aS'img5_0017.tif'
p284
aS'img1_0010.tif'
p285
aS'img2_0018.tif'
p286
aS'img3_0040.tif'
p287
aS'img3_0039.tif'
p288
aS'img4_0033.tif'
p289
aS'img1_0016.tif'
p290
aS'img1_0032.tif'
p291
aS'img5_0014.tif'
p292
aS'img4_0016.tif'
p293
aS'img7_0015.tif'
p294
aS'img3_0035.tif'
p295
aS'img2_0040.tif'
p296
aS'img2_0047.tif'
p297
aS'img4_0038.tif'
p298
aS'img7_0014.tif'
p299
aS'img3_0053.tif'
p300
aS'img3_0008.tif'
p301
a.